target datalayout = "e-m:e-p270:32:32-p271:32:32-p272:64:64-i64:64-i128:128-f80:128-n8:16:32:64-S128"
target triple = "x86_64-pc-linux-gnu"

%class.JVMFlag = type { ptr, ptr, i32, i32 }

@UnlockDiagnosticVMOptions = external global i8, align 1
@UnlockExperimentalVMOptions = external global i8, align 1
@.str.5 = private unnamed_addr constant [137 x i8] c"Error: VM option '%s' is diagnostic and must be enabled via -XX:+UnlockDiagnosticVMOptions.\0AError: The unlock option must precede '%s'.\0A\00", align 1
@.str.6 = private unnamed_addr constant [141 x i8] c"Error: VM option '%s' is experimental and must be enabled via -XX:+UnlockExperimentalVMOptions.\0AError: The unlock option must precede '%s'.\0A\00", align 1
@.str.7 = private unnamed_addr constant [80 x i8] c"Error: VM option '%s' is develop and is available only in debug version of VM.\0A\00", align 1

; Function Attrs: mustprogress nounwind uwtable
define internal noundef zeroext i1 @_ZL16is_product_buildv() #1 {
  ret i1 true
}

; Function Attrs: mustprogress nounwind uwtable
define linkonce_odr hidden noundef zeroext i1 @_ZNK7JVMFlag10is_developEv(ptr noundef nonnull align 8 dereferenceable(24) %0) #1 comdat align 2 {
  %2 = alloca ptr, align 8
  store ptr %0, ptr %2, align 8
  %3 = load ptr, ptr %2, align 8
  %4 = getelementptr inbounds %class.JVMFlag, ptr %3, i32 0, i32 2
  %5 = load i32, ptr %4, align 8
  %6 = and i32 %5, 256
  %7 = icmp ne i32 %6, 0
  ret i1 %7
}

; Function Attrs: mustprogress nounwind uwtable
define linkonce_odr hidden noundef zeroext i1 @_ZNK7JVMFlag15is_experimentalEv(ptr noundef nonnull align 8 dereferenceable(24) %0) #1 comdat align 2 {
  %2 = alloca ptr, align 8
  store ptr %0, ptr %2, align 8
  %3 = load ptr, ptr %2, align 8
  %4 = getelementptr inbounds %class.JVMFlag, ptr %3, i32 0, i32 2
  %5 = load i32, ptr %4, align 8
  %6 = and i32 %5, 128
  %7 = icmp ne i32 %6, 0
  ret i1 %7
}

; Function Attrs: mustprogress nounwind uwtable
define hidden noundef zeroext i1 @_ZNK7JVMFlag11is_unlockedEv(ptr noundef nonnull align 8 dereferenceable(24) %0) #1 align 2 {
  %2 = alloca i1, align 1
  %3 = alloca ptr, align 8
  store ptr %0, ptr %3, align 8
  %4 = load ptr, ptr %3, align 8
  %5 = call noundef zeroext i1 @_ZNK7JVMFlag13is_diagnosticEv(ptr noundef nonnull align 8 dereferenceable(24) %4)
  br i1 %5, label %6, label %9

6:                                                ; preds = %1
  %7 = load i8, ptr @UnlockDiagnosticVMOptions, align 1
  %8 = trunc i8 %7 to i1
  store i1 %8, ptr %2, align 1
  br label %15

9:                                                ; preds = %1
  %10 = call noundef zeroext i1 @_ZNK7JVMFlag15is_experimentalEv(ptr noundef nonnull align 8 dereferenceable(24) %4)
  br i1 %10, label %11, label %14

11:                                               ; preds = %9
  %12 = load i8, ptr @UnlockExperimentalVMOptions, align 1
  %13 = trunc i8 %12 to i1
  store i1 %13, ptr %2, align 1
  br label %15

14:                                               ; preds = %9
  store i1 true, ptr %2, align 1
  br label %15

15:                                               ; preds = %14, %11, %6
  %16 = load i1, ptr %2, align 1
  ret i1 %16
}

; Function Attrs: mustprogress nounwind uwtable
define linkonce_odr hidden noundef zeroext i1 @_ZNK7JVMFlag13is_diagnosticEv(ptr noundef nonnull align 8 dereferenceable(24) %0) #1 comdat align 2 {
  %2 = alloca ptr, align 8
  store ptr %0, ptr %2, align 8
  %3 = load ptr, ptr %2, align 8
  %4 = getelementptr inbounds %class.JVMFlag, ptr %3, i32 0, i32 2
  %5 = load i32, ptr %4, align 8
  %6 = and i32 %5, 64
  %7 = icmp ne i32 %6, 0
  ret i1 %7
}

; Function Attrs: mustprogress nounwind uwtable
define hidden noundef i32 @_ZNK7JVMFlag18get_locked_messageEPci(ptr noundef nonnull align 8 dereferenceable(24) %0, ptr noundef %1, i32 noundef %2) #1 align 2 {
  %4 = alloca i32, align 4
  %5 = alloca ptr, align 8
  %6 = alloca ptr, align 8
  %7 = alloca i32, align 4
  store ptr %0, ptr %5, align 8
  store ptr %1, ptr %6, align 8
  store i32 %2, ptr %7, align 4
  %8 = load ptr, ptr %5, align 8
  %9 = load ptr, ptr %6, align 8
  %10 = getelementptr inbounds i8, ptr %9, i64 0
  store i8 0, ptr %10, align 1
  %11 = call noundef zeroext i1 @_ZNK7JVMFlag13is_diagnosticEv(ptr noundef nonnull align 8 dereferenceable(24) %8)
  br i1 %11, label %12, label %23

12:                                               ; preds = %3
  %13 = call noundef zeroext i1 @_ZNK7JVMFlag11is_unlockedEv(ptr noundef nonnull align 8 dereferenceable(24) %8)
  br i1 %13, label %23, label %14

14:                                               ; preds = %12
  %15 = load ptr, ptr %6, align 8
  %16 = load i32, ptr %7, align 4
  %17 = sext i32 %16 to i64
  %18 = getelementptr inbounds %class.JVMFlag, ptr %8, i32 0, i32 1
  %19 = load ptr, ptr %18, align 8
  %20 = getelementptr inbounds %class.JVMFlag, ptr %8, i32 0, i32 1
  %21 = load ptr, ptr %20, align 8
  %22 = call i32 (ptr, i64, ptr, ...) @jio_snprintf(ptr noundef %15, i64 noundef %17, ptr noundef @.str.5, ptr noundef %19, ptr noundef %21)
  store i32 1, ptr %4, align 4
  br label %48

23:                                               ; preds = %12, %3
  %24 = call noundef zeroext i1 @_ZNK7JVMFlag15is_experimentalEv(ptr noundef nonnull align 8 dereferenceable(24) %8)
  br i1 %24, label %25, label %36

25:                                               ; preds = %23
  %26 = call noundef zeroext i1 @_ZNK7JVMFlag11is_unlockedEv(ptr noundef nonnull align 8 dereferenceable(24) %8)
  br i1 %26, label %36, label %27

27:                                               ; preds = %25
  %28 = load ptr, ptr %6, align 8
  %29 = load i32, ptr %7, align 4
  %30 = sext i32 %29 to i64
  %31 = getelementptr inbounds %class.JVMFlag, ptr %8, i32 0, i32 1
  %32 = load ptr, ptr %31, align 8
  %33 = getelementptr inbounds %class.JVMFlag, ptr %8, i32 0, i32 1
  %34 = load ptr, ptr %33, align 8
  %35 = call i32 (ptr, i64, ptr, ...) @jio_snprintf(ptr noundef %28, i64 noundef %30, ptr noundef @.str.6, ptr noundef %32, ptr noundef %34)
  store i32 2, ptr %4, align 4
  br label %48

36:                                               ; preds = %25, %23
  %37 = call noundef zeroext i1 @_ZNK7JVMFlag10is_developEv(ptr noundef nonnull align 8 dereferenceable(24) %8)
  br i1 %37, label %38, label %47

38:                                               ; preds = %36
  %39 = call noundef zeroext i1 @_ZL16is_product_buildv()
  br i1 %39, label %40, label %47

40:                                               ; preds = %38
  %41 = load ptr, ptr %6, align 8
  %42 = load i32, ptr %7, align 4
  %43 = sext i32 %42 to i64
  %44 = getelementptr inbounds %class.JVMFlag, ptr %8, i32 0, i32 1
  %45 = load ptr, ptr %44, align 8
  %46 = call i32 (ptr, i64, ptr, ...) @jio_snprintf(ptr noundef %41, i64 noundef %43, ptr noundef @.str.7, ptr noundef %45)
  store i32 3, ptr %4, align 4
  br label %48

47:                                               ; preds = %38, %36
  store i32 0, ptr %4, align 4
  br label %48

48:                                               ; preds = %47, %40, %27, %14
  %49 = load i32, ptr %4, align 4
  ret i32 %49
}