; Function Attrs: mustprogress nounwind uwtable
define hidden noundef range(i32 0, 4) i32 @_ZNK7JVMFlag18get_locked_messageEPci(ptr nocapture noundef nonnull readonly align 8 dereferenceable(24) %0, ptr noundef %1, i32 noundef %2) local_unnamed_addr #5 align 2 {
  store i8 0, ptr %1, align 1
  %4 = getelementptr inbounds i8, ptr %0, i64 16
  %5 = load i32, ptr %4, align 8
  %6 = and i32 %5, 64
  %.not = icmp eq i32 %6, 0
  br i1 %.not, label %.thread, label %_ZNK7JVMFlag11is_unlockedEv.exit

_ZNK7JVMFlag11is_unlockedEv.exit:                 ; preds = %3
  %7 = load i8, ptr @UnlockDiagnosticVMOptions, align 1
  %8 = trunc i8 %7 to i1
  br i1 %8, label %22, label %9

9:                                                ; preds = %_ZNK7JVMFlag11is_unlockedEv.exit
  %10 = sext i32 %2 to i64
  %11 = getelementptr inbounds i8, ptr %0, i64 8
  %12 = load ptr, ptr %11, align 8
  %13 = tail call i32 (ptr, i64, ptr, ...) @jio_snprintf(ptr noundef nonnull %1, i64 noundef %10, ptr noundef nonnull @.str.5, ptr noundef %12, ptr noundef %12) #13
  br label %29

.thread:                                          ; preds = %3
  %14 = and i32 %5, 128
  %.not14 = icmp eq i32 %14, 0
  br i1 %.not14, label %22, label %_ZNK7JVMFlag11is_unlockedEv.exit11

_ZNK7JVMFlag11is_unlockedEv.exit11:               ; preds = %.thread
  %15 = load i8, ptr @UnlockExperimentalVMOptions, align 1
  %16 = trunc i8 %15 to i1
  br i1 %16, label %22, label %17

17:                                               ; preds = %_ZNK7JVMFlag11is_unlockedEv.exit11
  %18 = sext i32 %2 to i64
  %19 = getelementptr inbounds i8, ptr %0, i64 8
  %20 = load ptr, ptr %19, align 8
  %21 = tail call i32 (ptr, i64, ptr, ...) @jio_snprintf(ptr noundef nonnull %1, i64 noundef %18, ptr noundef nonnull @.str.6, ptr noundef %20, ptr noundef %20) #13
  br label %29

22:                                               ; preds = %_ZNK7JVMFlag11is_unlockedEv.exit, %.thread, %_ZNK7JVMFlag11is_unlockedEv.exit11
  %23 = and i32 %5, 256
  %.not16 = icmp eq i32 %23, 0
  br i1 %.not16, label %29, label %24

24:                                               ; preds = %22
  %25 = sext i32 %2 to i64
  %26 = getelementptr inbounds i8, ptr %0, i64 8
  %27 = load ptr, ptr %26, align 8
  %28 = tail call i32 (ptr, i64, ptr, ...) @jio_snprintf(ptr noundef nonnull %1, i64 noundef %25, ptr noundef nonnull @.str.7, ptr noundef %27) #13
  br label %29

29:                                               ; preds = %22, %24, %17, %9
  %.0 = phi i32 [ 3, %24 ], [ 2, %17 ], [ 1, %9 ], [ 0, %22 ]
  ret i32 %.0
}